ccopy_reg
_reconstructor
p0
(cwebcorpus
WebCorpus
p1
c__builtin__
object
p2
Ntp3
Rp4
(dp5
S'_ranks'
p6
(dp7
Vhttp://udacity.com/cs101x/urank/hummus.html
p8
F0.039682541078744915
sVhttp://udacity.com/cs101x/urank/kathleen.html
p9
F0.16666666666666666
sVhttp://udacity.com/cs101x/urank/arsenic.html
p10
F0.055567206399999985
sVhttp://udacity.com/cs101x/urank/zinc.html
p11
F0.08957694222265744
sVhttp://udacity.com/cs101x/urank/nickel.html
p12
F0.16666666666666666
ssS'_graph'
p13
g0
(cgraph
Graph
p14
g2
Ntp15
Rp16
(dp17
S'_nodes'
p18
(dp19
g9
c__builtin__
set
p20
((lp21
tp22
Rp23
sg11
g20
((lp24
Vhttp://udacity.com/cs101x/urank/arsenic.html
p25
aVhttp://udacity.com/cs101x/urank/nickel.html
p26
atp27
Rp28
sg8
g20
((lp29
tp30
Rp31
sg10
g20
((lp32
Vhttp://udacity.com/cs101x/urank/nickel.html
p33
atp34
Rp35
sS'http://udacity.com/cs101x/urank/index.html'
p36
g20
((lp37
g8
ag9
ag10
ag11
ag12
atp38
Rp39
sg12
g20
((lp40
Vhttp://udacity.com/cs101x/urank/kathleen.html
p41
atp42
Rp43
ssbsS'_index'
p44
(dp45
S'<body>'
p46
(lp47
g36
ag9
ag10
ag11
ag12
ag8
asS'Chef</a>'
p48
(lp49
g36
asS'<html>'
p50
(lp51
g36
ag9
ag10
ag11
ag12
ag8
asS'Here'
p52
(lp53
g36
asS'tablesppons'
p54
(lp55
g9
asS'to'
p56
(lp57
g9
ag10
ag8
asS'garbonzo'
p58
(lp59
g9
asS'World'
p60
(lp61
g10
asS'Recipe</a>'
p62
(lp63
g36
ag36
asS'it.'
p64
(lp65
g8
asS'them'
p66
(lp67
g9
asS'</html>'
p68
(lp69
g36
ag9
ag10
ag11
ag12
ag8
asS'Hummus'
p70
(lp71
g36
ag9
ag10
ag12
ag8
asS'know'
p72
(lp73
g11
asS'buttercream'
p74
(lp75
g9
asS'recipe!'
p76
(lp77
g12
asS'Recipe'
p78
(lp79
g9
ag10
ag8
asS'blender.'
p80
(lp81
g9
asS'try'
p82
(lp83
g11
asS'<p>'
p84
(lp85
g36
ag9
ag10
ag11
ag11
ag12
ag8
asS'Go'
p86
(lp87
g8
asS'</ul>'
p88
(lp89
g36
asS'opinions,'
p90
(lp91
g36
asS'href="http://udacity.com/cs101x/urank/zinc.html">Zinc'
p92
(lp93
g36
asS'For'
p94
(lp95
g36
ag11
asS'hummus.'
p96
(lp97
g8
asS'hummus,'
p98
(lp99
g11
asS'are'
p100
(lp101
g36
asS'href="http://udacity.com/cs101x/urank/arsenic.html">this'
p102
(lp103
g11
asS'best'
p104
(lp105
g12
asS'out'
p106
(lp107
g36
asS'Nickel'
p108
(lp109
g11
ag12
asS'expert'
p110
(lp111
g36
asS'everything'
p112
(lp113
g11
asS'3'
p114
(lp115
g9
asS'Hummus</a>'
p116
(lp117
g36
asS'</body>'
p118
(lp119
g36
ag9
ag10
ag11
ag12
ag8
asS'learned'
p120
(lp121
g11
asS'sauce.'
p122
(lp123
g9
asS'This'
p124
(lp125
g12
asS'Chef</h1>'
p126
(lp127
g11
ag12
asS'Algorithms</h1>'
p128
(lp129
g36
asS'from'
p130
(lp131
g11
asS'frosting'
p132
(lp133
g9
asS'great'
p134
(lp135
g11
asS'Chef</a>.'
p136
(lp137
g36
ag10
ag11
asS'favorite'
p138
(lp139
g36
asS'hummus'
p140
(lp141
g10
asS'</h1>'
p142
(lp143
g9
ag10
ag8
asS'href="http://udacity.com/cs101x/urank/nickel.html">the'
p144
(lp145
g11
asS'</ol>'
p146
(lp147
g9
ag10
ag8
asS'Arsenic'
p148
(lp149
g10
asS'Best'
p150
(lp151
g36
asS'lemon.'
p152
(lp153
g9
asS'one'
p154
(lp155
g9
asS'Add'
p156
(lp157
g9
ag9
asS'<h1>'
p158
(lp159
g9
ag10
ag8
asS'</p>'
p160
(lp161
g11
asS'href="http://udacity.com/cs101x/urank/kathleen.html">Kathleen\'s'
p162
(lp163
g36
asS'her'
p164
(lp165
g10
asS"<h1>Dave's"
p166
(lp167
g36
asS'href="http://udacity.com/cs101x/urank/kathleen.html">'
p168
(lp169
g12
asS'recipies:'
p170
(lp171
g36
asS'<h1>The'
p172
(lp173
g11
ag12
asS'href="http://udacity.com/cs101x/urank/arsenic.html">World\'s'
p174
(lp175
g36
asS'beans.'
p176
(lp177
g9
asS'store'
p178
(lp179
g8
asS'more'
p180
(lp181
g36
asS'you.'
p182
(lp183
g10
asS'href="http://udacity.com/cs101x/urank/hummus.html">Hummus'
p184
(lp185
g36
asS'buy'
p186
(lp187
g8
asS'Squeeze'
p188
(lp189
g9
asS'Force'
p190
(lp191
g10
asS'pepper,'
p192
(lp193
g9
asS'can'
p194
(lp195
g9
asS'Zinc'
p196
(lp197
g11
asS'of'
p198
(lp199
g9
ag9
ag8
asS'Open'
p200
(lp201
g9
ag8
asS'and'
p202
(lp203
g36
ag9
ag8
asS'is'
p204
(lp205
g12
asS'Cooking'
p206
(lp207
g36
asS'Crush'
p208
(lp209
g9
asS'container'
p210
(lp211
g8
asS'in'
p212
(lp213
g9
ag9
asS'my'
p214
(lp215
g36
asS'check'
p216
(lp217
g36
asS'make'
p218
(lp219
g10
asS'Famous'
p220
(lp221
g10
asS'<ul>'
p222
(lp223
g36
asS'salt,'
p224
(lp225
g9
asS"Chef's"
p226
(lp227
g10
asS'I'
p228
(lp229
g11
ag11
asS"Kathleen's"
p230
(lp231
g9
asS'<ol>'
p232
(lp233
g9
ag10
ag8
asS'taste.'
p234
(lp235
g9
asS'href="http://udacity.com/cs101x/urank/nickel.html">Nickel'
p236
(lp237
g36
ag10
asS'<a'
p238
(lp239
g36
ag36
ag36
ag36
ag36
ag10
ag11
ag11
ag12
asS'<li>'
p240
(lp241
g36
ag36
ag36
ag9
ag9
ag9
ag9
ag9
ag10
ag10
ag8
ag8
asS'The'
p242
(lp243
g10
asS'a'
p244
(lp245
g9
ag9
ag8
asS'for'
p246
(lp247
g10
asS'</a>'
p248
(lp249
g12
asS'tahini'
p250
(lp251
g9
asS'the'
p252
(lp253
g36
ag10
ag12
ag8
asS'Kidnap'
p254
(lp255
g10
asS'recipe</a>.'
p256
(lp257
g11
assb.